c__builtin__
set
p0
((lp1
(I196
I9111
F0.8116157855547282
tp2
a(I706
I707
F0.8187565858798735
tp3
a(I8275
I8276
F0.8146739130434782
tp4
a(I3025
I3026
F0.9963235294117647
tp5
a(I6486
I6487
F0.8123667377398721
tp6
atp7
Rp8
.